target datalayout = "e-m:e-p270:32:32-p271:32:32-p272:64:64-i64:64-i128:128-f80:128-n8:16:32:64-S128"
target triple = "x86_64-unknown-linux-gnu"

%struct.NBDClientConnection = type { ptr, ptr, ptr, %struct.NBDExportInfo, i8, i8, %struct.QemuMutex, %struct.NBDExportInfo, ptr, ptr, ptr, i8, i8, ptr }
%struct.QemuMutex = type { %union.pthread_mutex_t, i8 }
%union.pthread_mutex_t = type { %struct.__pthread_mutex_s }
%struct.__pthread_mutex_s = type { i32, i32, i32, i32, i32, i16, i16, %struct.__pthread_internal_list }
%struct.__pthread_internal_list = type { ptr, ptr }
%struct.NBDExportInfo = type { i8, ptr, ptr, i32, i8, i64, i16, i32, i32, i32, i32, ptr, i32, ptr }
%struct.QemuLockable = type { ptr, ptr, ptr }

@.str.1 = private unnamed_addr constant [16 x i8] c"!conn->detached\00", align 1
@.str.2 = private unnamed_addr constant [32 x i8] c"../qemu/nbd/client-connection.c\00", align 1
@__PRETTY_FUNCTION__.nbd_client_connection_release = private unnamed_addr constant [58 x i8] c"void nbd_client_connection_release(NBDClientConnection *)\00", align 1
@.str.11 = private unnamed_addr constant [12 x i8] c"qio-channel\00", align 1
@.str.12 = private unnamed_addr constant [99 x i8] c"/home/dtcxzyw/WorkSpace/Projects/compilers/llvm-opt-benchmark/bench/qemu/qemu/include/io/channel.h\00", align 1
@__func__.QIO_CHANNEL = private unnamed_addr constant [12 x i8] c"QIO_CHANNEL\00", align 1

; Function Attrs: nounwind sspstrong uwtable
define internal void @qemu_lockable_unlock(ptr noundef %x) #0 {
entry:
  %x.addr = alloca ptr, align 8
  store ptr %x, ptr %x.addr, align 8
  %0 = load ptr, ptr %x.addr, align 8
  %unlock = getelementptr inbounds %struct.QemuLockable, ptr %0, i32 0, i32 2
  %1 = load ptr, ptr %unlock, align 8
  %2 = load ptr, ptr %x.addr, align 8
  %object = getelementptr inbounds %struct.QemuLockable, ptr %2, i32 0, i32 0
  %3 = load ptr, ptr %object, align 8
  call void %1(ptr noundef %3)
  ret void
}

; Function Attrs: nounwind sspstrong uwtable
define internal void @glib_autoptr_clear_QemuLockable(ptr noundef %_ptr) #0 {
entry:
  %_ptr.addr = alloca ptr, align 8
  store ptr %_ptr, ptr %_ptr.addr, align 8
  %0 = load ptr, ptr %_ptr.addr, align 8
  %tobool = icmp ne ptr %0, null
  br i1 %tobool, label %if.then, label %if.end

if.then:                                          ; preds = %entry
  %1 = load ptr, ptr %_ptr.addr, align 8
  call void @qemu_lockable_auto_unlock(ptr noundef %1)
  br label %if.end

if.end:                                           ; preds = %if.then, %entry
  ret void
}

; Function Attrs: nounwind sspstrong uwtable
define internal void @qemu_lockable_lock(ptr noundef %x) #0 {
entry:
  %x.addr = alloca ptr, align 8
  store ptr %x, ptr %x.addr, align 8
  %0 = load ptr, ptr %x.addr, align 8
  %lock = getelementptr inbounds %struct.QemuLockable, ptr %0, i32 0, i32 1
  %1 = load ptr, ptr %lock, align 8
  %2 = load ptr, ptr %x.addr, align 8
  %object = getelementptr inbounds %struct.QemuLockable, ptr %2, i32 0, i32 0
  %3 = load ptr, ptr %object, align 8
  call void %1(ptr noundef %3)
  ret void
}

; Function Attrs: nounwind sspstrong uwtable
define internal void @qemu_lockable_auto_unlock(ptr noundef %x) #0 {
entry:
  %x.addr = alloca ptr, align 8
  store ptr %x, ptr %x.addr, align 8
  %0 = load ptr, ptr %x.addr, align 8
  %tobool = icmp ne ptr %0, null
  br i1 %tobool, label %if.then, label %if.end

if.then:                                          ; preds = %entry
  %1 = load ptr, ptr %x.addr, align 8
  call void @qemu_lockable_unlock(ptr noundef %1)
  br label %if.end

if.end:                                           ; preds = %if.then, %entry
  ret void
}

; Function Attrs: nounwind sspstrong uwtable
define internal ptr @QIO_CHANNEL(ptr noundef %obj) #0 {
entry:
  %obj.addr = alloca ptr, align 8
  store ptr %obj, ptr %obj.addr, align 8
  %0 = load ptr, ptr %obj.addr, align 8
  %call = call ptr @object_dynamic_cast_assert(ptr noundef %0, ptr noundef @.str.11, ptr noundef @.str.12, i32 noundef 30, ptr noundef @__func__.QIO_CHANNEL)
  ret ptr %call
}

; Function Attrs: nounwind sspstrong uwtable
define internal void @glib_autoptr_cleanup_QemuLockable(ptr noundef %_ptr) #0 {
entry:
  %_ptr.addr = alloca ptr, align 8
  store ptr %_ptr, ptr %_ptr.addr, align 8
  %0 = load ptr, ptr %_ptr.addr, align 8
  %1 = load ptr, ptr %0, align 8
  call void @glib_autoptr_clear_QemuLockable(ptr noundef %1)
  ret void
}

; Function Attrs: nounwind sspstrong uwtable
define internal ptr @qemu_lockable_auto_lock(ptr noundef %x) #0 {
entry:
  %x.addr = alloca ptr, align 8
  store ptr %x, ptr %x.addr, align 8
  %0 = load ptr, ptr %x.addr, align 8
  call void @qemu_lockable_lock(ptr noundef %0)
  %1 = load ptr, ptr %x.addr, align 8
  ret ptr %1
}

; Function Attrs: nounwind sspstrong uwtable
define dso_local void @nbd_client_connection_release(ptr noundef %conn) #0 {
entry:
  %conn.addr = alloca ptr, align 8
  %do_free = alloca i8, align 1
  %qemu_lockable_auto0 = alloca ptr, align 8
  %.compoundliteral = alloca %struct.QemuLockable, align 8
  store ptr %conn, ptr %conn.addr, align 8
  store i8 0, ptr %do_free, align 1
  %0 = load ptr, ptr %conn.addr, align 8
  %tobool = icmp ne ptr %0, null
  br i1 %tobool, label %if.end, label %if.then

if.then:                                          ; preds = %entry
  br label %if.end18

if.end:                                           ; preds = %entry
  %object = getelementptr inbounds %struct.QemuLockable, ptr %.compoundliteral, i32 0, i32 0
  %1 = load ptr, ptr %conn.addr, align 8
  %mutex = getelementptr inbounds %struct.NBDClientConnection, ptr %1, i32 0, i32 6
  store ptr %mutex, ptr %object, align 8
  %lock = getelementptr inbounds %struct.QemuLockable, ptr %.compoundliteral, i32 0, i32 1
  store ptr @qemu_mutex_lock, ptr %lock, align 8
  %unlock = getelementptr inbounds %struct.QemuLockable, ptr %.compoundliteral, i32 0, i32 2
  store ptr @qemu_mutex_unlock, ptr %unlock, align 8
  %call = call ptr @qemu_lockable_auto_lock(ptr noundef %.compoundliteral)
  store ptr %call, ptr %qemu_lockable_auto0, align 8
  br label %for.cond

for.cond:                                         ; preds = %for.inc, %if.end
  %2 = load ptr, ptr %qemu_lockable_auto0, align 8
  %tobool1 = icmp ne ptr %2, null
  br i1 %tobool1, label %for.body, label %for.cond.cleanup

for.cond.cleanup:                                 ; preds = %for.cond
  call void @glib_autoptr_cleanup_QemuLockable(ptr noundef %qemu_lockable_auto0)
  br label %for.end

for.body:                                         ; preds = %for.cond
  %3 = load ptr, ptr %conn.addr, align 8
  %detached = getelementptr inbounds %struct.NBDClientConnection, ptr %3, i32 0, i32 12
  %4 = load i8, ptr %detached, align 1
  %tobool2 = trunc i8 %4 to i1
  br i1 %tobool2, label %if.else, label %if.then3

if.then3:                                         ; preds = %for.body
  br label %if.end4

if.else:                                          ; preds = %for.body
  call void @__assert_fail(ptr noundef @.str.1, ptr noundef @.str.2, i32 noundef 258, ptr noundef @__PRETTY_FUNCTION__.nbd_client_connection_release) #9
  unreachable

if.end4:                                          ; preds = %if.then3
  %5 = load ptr, ptr %conn.addr, align 8
  %running = getelementptr inbounds %struct.NBDClientConnection, ptr %5, i32 0, i32 11
  %6 = load i8, ptr %running, align 8
  %tobool5 = trunc i8 %6 to i1
  br i1 %tobool5, label %if.then6, label %if.else8

if.then6:                                         ; preds = %if.end4
  %7 = load ptr, ptr %conn.addr, align 8
  %detached7 = getelementptr inbounds %struct.NBDClientConnection, ptr %7, i32 0, i32 12
  store i8 1, ptr %detached7, align 1
  br label %if.end9

if.else8:                                         ; preds = %if.end4
  store i8 1, ptr %do_free, align 1
  br label %if.end9

if.end9:                                          ; preds = %if.else8, %if.then6
  %8 = load ptr, ptr %conn.addr, align 8
  %sioc = getelementptr inbounds %struct.NBDClientConnection, ptr %8, i32 0, i32 8
  %9 = load ptr, ptr %sioc, align 8
  %tobool10 = icmp ne ptr %9, null
  br i1 %tobool10, label %if.then11, label %if.end15

if.then11:                                        ; preds = %if.end9
  %10 = load ptr, ptr %conn.addr, align 8
  %sioc12 = getelementptr inbounds %struct.NBDClientConnection, ptr %10, i32 0, i32 8
  %11 = load ptr, ptr %sioc12, align 8
  %call13 = call ptr @QIO_CHANNEL(ptr noundef %11)
  %call14 = call i32 @qio_channel_shutdown(ptr noundef %call13, i32 noundef 3, ptr noundef null)
  br label %if.end15

if.end15:                                         ; preds = %if.then11, %if.end9
  br label %for.inc

for.inc:                                          ; preds = %if.end15
  %12 = load ptr, ptr %qemu_lockable_auto0, align 8
  call void @qemu_lockable_auto_unlock(ptr noundef %12)
  store ptr null, ptr %qemu_lockable_auto0, align 8
  br label %for.cond, !llvm.loop !5

for.end:                                          ; preds = %for.cond.cleanup
  %13 = load i8, ptr %do_free, align 1
  %tobool16 = trunc i8 %13 to i1
  br i1 %tobool16, label %if.then17, label %if.end18

if.then17:                                        ; preds = %for.end
  %14 = load ptr, ptr %conn.addr, align 8
  call void @nbd_client_connection_do_free(ptr noundef %14)
  br label %if.end18

if.end18:                                         ; preds = %if.then17, %for.end, %if.then
  ret void
}