; Function Attrs: nounwind sspstrong uwtable
define dso_local void @nbd_client_connection_release(ptr noundef %conn) local_unnamed_addr #1 {
entry:
  %tobool.not = icmp eq ptr %conn, null
  br i1 %tobool.not, label %if.end18, label %for.body.us

for.body.us:                                      ; preds = %entry
  %mutex = getelementptr inbounds nuw i8, ptr %conn, i64 120
  %0 = load atomic i64, ptr @qemu_mutex_lock_func monotonic, align 8
  %1 = inttoptr i64 %0 to ptr
  tail call void %1(ptr noundef nonnull %mutex, ptr noundef nonnull @.str.10, i32 noundef 122) #10
  %detached = getelementptr inbounds nuw i8, ptr %conn, i64 281
  %sioc = getelementptr inbounds nuw i8, ptr %conn, i64 256
  %2 = load i8, ptr %detached, align 1
  %tobool2.us = trunc i8 %2 to i1
  br i1 %tobool2.us, label %if.else, label %if.end4.us

if.end4.us:                                       ; preds = %for.body.us
  %running = getelementptr inbounds nuw i8, ptr %conn, i64 280
  %3 = load i8, ptr %running, align 8
  %tobool5.us = trunc i8 %3 to i1
  br i1 %tobool5.us, label %if.then6.us, label %if.end9.us

if.then6.us:                                      ; preds = %if.end4.us
  store i8 1, ptr %detached, align 1
  br label %if.end9.us

if.end9.us:                                       ; preds = %if.then6.us, %if.end4.us
  %4 = load ptr, ptr %sioc, align 8
  %tobool10.not.us = icmp eq ptr %4, null
  br i1 %tobool10.not.us, label %qemu_lockable_auto_unlock.exit.us, label %if.then11.us

if.then11.us:                                     ; preds = %if.end9.us
  %call.i.us = tail call ptr @object_dynamic_cast_assert(ptr noundef nonnull %4, ptr noundef nonnull @.str.11, ptr noundef nonnull @.str.12, i32 noundef 30, ptr noundef nonnull @__func__.QIO_CHANNEL) #10
  %call14.us = tail call i32 @qio_channel_shutdown(ptr noundef %call.i.us, i32 noundef 3, ptr noundef null) #10
  br label %qemu_lockable_auto_unlock.exit.us

qemu_lockable_auto_unlock.exit.us:                ; preds = %if.then11.us, %if.end9.us
  tail call void @qemu_mutex_unlock_impl(ptr noundef nonnull %mutex, ptr noundef nonnull @.str.10, i32 noundef 132) #10
  br i1 %tobool5.us, label %if.end18, label %if.then17

if.else:                                          ; preds = %for.body.us
  tail call void @__assert_fail(ptr noundef nonnull @.str.1, ptr noundef nonnull @.str.2, i32 noundef 258, ptr noundef nonnull @__PRETTY_FUNCTION__.nbd_client_connection_release) #11
  unreachable

if.then17:                                        ; preds = %qemu_lockable_auto_unlock.exit.us
  tail call fastcc void @nbd_client_connection_do_free(ptr noundef nonnull %conn)
  br label %if.end18

if.end18:                                         ; preds = %entry, %if.then17, %qemu_lockable_auto_unlock.exit.us
  ret void
}